target datalayout = "e-m:e-p270:32:32-p271:32:32-p272:64:64-i64:64-i128:128-f80:128-n8:16:32:64-S128"
target triple = "x86_64-pc-linux-gnu"

%"class.clang::driver::toolchains::AMDGPUOpenMPToolChain" = type { %"class.clang::driver::toolchains::ROCMToolChain", ptr }
%"class.clang::driver::toolchains::ROCMToolChain" = type { %"class.clang::driver::toolchains::AMDGPUToolChain" }
%"class.clang::driver::toolchains::AMDGPUToolChain" = type { %"class.clang::driver::toolchains::Generic_ELF", %"class.std::map.120" }
%"class.clang::driver::toolchains::Generic_ELF" = type { %"class.clang::driver::toolchains::Generic_GCC" }
%"class.clang::driver::toolchains::Generic_GCC" = type { %"class.clang::driver::ToolChain", %"class.clang::driver::toolchains::Generic_GCC::GCCInstallationDetector", %"class.clang::LazyDetector", %"class.clang::LazyDetector.77", %"class.std::unique_ptr.104", %"class.std::unique_ptr.112" }
%"class.clang::driver::ToolChain" = type { ptr, ptr, %"class.llvm::Triple", ptr, ptr, i32, i32, %"class.llvm::SmallVector", %"class.llvm::SmallVector", %"class.llvm::SmallVector", %"class.std::unique_ptr", %"class.std::unique_ptr", %"class.std::unique_ptr", %"class.std::unique_ptr", %"class.std::unique_ptr", %"class.std::unique_ptr", %"class.std::unique_ptr", %"class.std::unique_ptr", %"class.std::unique_ptr", i8, %"class.std::unique_ptr.2", %"class.llvm::Triple", %"class.std::optional", %"class.std::optional.10", %"class.std::optional.18", %"class.clang::driver::MultilibSet", %"class.llvm::SmallVector.34" }
%"class.llvm::SmallVector" = type { %"class.llvm::SmallVectorImpl", %"struct.llvm::SmallVectorStorage" }
%"class.llvm::SmallVectorImpl" = type { %"class.llvm::SmallVectorTemplateBase" }
%"class.llvm::SmallVectorTemplateBase" = type { %"class.llvm::SmallVectorTemplateCommon" }
%"class.llvm::SmallVectorTemplateCommon" = type { %"class.llvm::SmallVectorBase" }
%"class.llvm::SmallVectorBase" = type { ptr, i32, i32 }
%"struct.llvm::SmallVectorStorage" = type { [512 x i8] }
%"class.std::unique_ptr" = type { %"struct.std::__uniq_ptr_data" }
%"struct.std::__uniq_ptr_data" = type { %"class.std::__uniq_ptr_impl" }
%"class.std::__uniq_ptr_impl" = type { %"class.std::tuple" }
%"class.std::tuple" = type { %"struct.std::_Tuple_impl" }
%"struct.std::_Tuple_impl" = type { %"struct.std::_Head_base.1" }
%"struct.std::_Head_base.1" = type { ptr }
%"class.std::unique_ptr.2" = type { %"struct.std::__uniq_ptr_data.3" }
%"struct.std::__uniq_ptr_data.3" = type { %"class.std::__uniq_ptr_impl.4" }
%"class.std::__uniq_ptr_impl.4" = type { %"class.std::tuple.5" }
%"class.std::tuple.5" = type { %"struct.std::_Tuple_impl.6" }
%"struct.std::_Tuple_impl.6" = type { %"struct.std::_Head_base.9" }
%"struct.std::_Head_base.9" = type { ptr }
%"class.llvm::Triple" = type { %"class.std::__cxx11::basic_string", i32, i32, i32, i32, i32, i32 }
%"class.std::__cxx11::basic_string" = type { %"struct.std::__cxx11::basic_string<char>::_Alloc_hider", i64, %union.anon }
%"struct.std::__cxx11::basic_string<char>::_Alloc_hider" = type { ptr }
%union.anon = type { i64, [8 x i8] }
%"class.std::optional" = type { %"struct.std::_Optional_base" }
%"struct.std::_Optional_base" = type { %"struct.std::_Optional_payload" }
%"struct.std::_Optional_payload" = type { %"struct.std::_Optional_payload_base.base", [3 x i8] }
%"struct.std::_Optional_payload_base.base" = type <{ %"union.std::_Optional_payload_base<clang::driver::ToolChain::CXXStdlibType>::_Storage", i8 }>
%"union.std::_Optional_payload_base<clang::driver::ToolChain::CXXStdlibType>::_Storage" = type { i32 }
%"class.std::optional.10" = type { %"struct.std::_Optional_base.11" }
%"struct.std::_Optional_base.11" = type { %"struct.std::_Optional_payload.13" }
%"struct.std::_Optional_payload.13" = type { %"struct.std::_Optional_payload_base.base.15", [3 x i8] }
%"struct.std::_Optional_payload_base.base.15" = type <{ %"union.std::_Optional_payload_base<clang::driver::ToolChain::RuntimeLibType>::_Storage", i8 }>
%"union.std::_Optional_payload_base<clang::driver::ToolChain::RuntimeLibType>::_Storage" = type { i32 }
%"class.std::optional.18" = type { %"struct.std::_Optional_base.19" }
%"struct.std::_Optional_base.19" = type { %"struct.std::_Optional_payload.21" }
%"struct.std::_Optional_payload.21" = type { %"struct.std::_Optional_payload_base.base.23", [3 x i8] }
%"struct.std::_Optional_payload_base.base.23" = type <{ %"union.std::_Optional_payload_base<clang::driver::ToolChain::UnwindLibType>::_Storage", i8 }>
%"union.std::_Optional_payload_base<clang::driver::ToolChain::UnwindLibType>::_Storage" = type { i32 }
%"class.clang::driver::MultilibSet" = type { %"class.std::vector", %"class.std::vector.29", %"class.std::function", %"class.std::function" }
%"class.std::vector" = type { %"struct.std::_Vector_base" }
%"struct.std::_Vector_base" = type { %"struct.std::_Vector_base<clang::driver::Multilib, std::allocator<clang::driver::Multilib>>::_Vector_impl" }
%"struct.std::_Vector_base<clang::driver::Multilib, std::allocator<clang::driver::Multilib>>::_Vector_impl" = type { %"struct.std::_Vector_base<clang::driver::Multilib, std::allocator<clang::driver::Multilib>>::_Vector_impl_data" }
%"struct.std::_Vector_base<clang::driver::Multilib, std::allocator<clang::driver::Multilib>>::_Vector_impl_data" = type { ptr, ptr, ptr }
%"class.std::vector.29" = type { %"struct.std::_Vector_base.30" }
%"struct.std::_Vector_base.30" = type { %"struct.std::_Vector_base<clang::driver::MultilibSet::FlagMatcher, std::allocator<clang::driver::MultilibSet::FlagMatcher>>::_Vector_impl" }
%"struct.std::_Vector_base<clang::driver::MultilibSet::FlagMatcher, std::allocator<clang::driver::MultilibSet::FlagMatcher>>::_Vector_impl" = type { %"struct.std::_Vector_base<clang::driver::MultilibSet::FlagMatcher, std::allocator<clang::driver::MultilibSet::FlagMatcher>>::_Vector_impl_data" }
%"struct.std::_Vector_base<clang::driver::MultilibSet::FlagMatcher, std::allocator<clang::driver::MultilibSet::FlagMatcher>>::_Vector_impl_data" = type { ptr, ptr, ptr }
%"class.std::function" = type { %"class.std::_Function_base", ptr }
%"class.std::_Function_base" = type { %"union.std::_Any_data", ptr }
%"union.std::_Any_data" = type { %"union.std::_Nocopy_types" }
%"union.std::_Nocopy_types" = type { { i64, i64 } }
%"class.llvm::SmallVector.34" = type { %"class.llvm::SmallVectorImpl.35", %"struct.llvm::SmallVectorStorage.38" }
%"class.llvm::SmallVectorImpl.35" = type { %"class.llvm::SmallVectorTemplateBase.36" }
%"class.llvm::SmallVectorTemplateBase.36" = type { %"class.llvm::SmallVectorTemplateCommon.37" }
%"class.llvm::SmallVectorTemplateCommon.37" = type { %"class.llvm::SmallVectorBase" }
%"struct.llvm::SmallVectorStorage.38" = type { [192 x i8] }
%"class.clang::driver::toolchains::Generic_GCC::GCCInstallationDetector" = type { i8, %"class.llvm::Triple", ptr, %"class.std::__cxx11::basic_string", %"class.std::__cxx11::basic_string", %"class.clang::driver::Multilib", %"class.std::optional.54", %"struct.clang::driver::toolchains::Generic_GCC::GCCVersion", %"class.std::set", %"class.clang::driver::MultilibSet", %"class.std::__cxx11::basic_string" }
%"class.clang::driver::Multilib" = type { %"class.std::__cxx11::basic_string", %"class.std::__cxx11::basic_string", %"class.std::__cxx11::basic_string", %"class.std::vector.39", %"class.std::__cxx11::basic_string", %"class.std::optional.44" }
%"class.std::vector.39" = type { %"struct.std::_Vector_base.40" }
%"struct.std::_Vector_base.40" = type { %"struct.std::_Vector_base<std::__cxx11::basic_string<char>, std::allocator<std::__cxx11::basic_string<char>>>::_Vector_impl" }
%"struct.std::_Vector_base<std::__cxx11::basic_string<char>, std::allocator<std::__cxx11::basic_string<char>>>::_Vector_impl" = type { %"struct.std::_Vector_base<std::__cxx11::basic_string<char>, std::allocator<std::__cxx11::basic_string<char>>>::_Vector_impl_data" }
%"struct.std::_Vector_base<std::__cxx11::basic_string<char>, std::allocator<std::__cxx11::basic_string<char>>>::_Vector_impl_data" = type { ptr, ptr, ptr }
%"class.std::optional.44" = type { %"struct.std::_Optional_base.45" }
%"struct.std::_Optional_base.45" = type { %"struct.std::_Optional_payload.47" }
%"struct.std::_Optional_payload.47" = type { %"struct.std::_Optional_payload.base.51", [7 x i8] }
%"struct.std::_Optional_payload.base.51" = type { %"struct.std::_Optional_payload_base.base.50" }
%"struct.std::_Optional_payload_base.base.50" = type <{ %"union.std::_Optional_payload_base<std::__cxx11::basic_string<char>>::_Storage", i8 }>
%"union.std::_Optional_payload_base<std::__cxx11::basic_string<char>>::_Storage" = type { %"class.std::__cxx11::basic_string" }
%"class.std::optional.54" = type { %"struct.std::_Optional_base.55" }
%"struct.std::_Optional_base.55" = type { %"struct.std::_Optional_payload.57" }
%"struct.std::_Optional_payload.57" = type { %"struct.std::_Optional_payload.base.61", [7 x i8] }
%"struct.std::_Optional_payload.base.61" = type { %"struct.std::_Optional_payload_base.base.60" }
%"struct.std::_Optional_payload_base.base.60" = type <{ %"union.std::_Optional_payload_base<clang::driver::Multilib>::_Storage", i8 }>
%"union.std::_Optional_payload_base<clang::driver::Multilib>::_Storage" = type { %"class.clang::driver::Multilib" }
%"struct.clang::driver::toolchains::Generic_GCC::GCCVersion" = type { %"class.std::__cxx11::basic_string", i32, i32, i32, %"class.std::__cxx11::basic_string", %"class.std::__cxx11::basic_string", %"class.std::__cxx11::basic_string" }
%"class.std::set" = type { %"class.std::_Rb_tree" }
%"class.std::_Rb_tree" = type { %"struct.std::_Rb_tree<std::__cxx11::basic_string<char>, std::__cxx11::basic_string<char>, std::_Identity<std::__cxx11::basic_string<char>>, std::less<std::__cxx11::basic_string<char>>>::_Rb_tree_impl" }
%"struct.std::_Rb_tree<std::__cxx11::basic_string<char>, std::__cxx11::basic_string<char>, std::_Identity<std::__cxx11::basic_string<char>>, std::less<std::__cxx11::basic_string<char>>>::_Rb_tree_impl" = type { [8 x i8], %"struct.std::_Rb_tree_header" }
%"struct.std::_Rb_tree_header" = type { %"struct.std::_Rb_tree_node_base", i64 }
%"struct.std::_Rb_tree_node_base" = type { i32, ptr, ptr, ptr }
%"class.clang::LazyDetector" = type { ptr, %"class.llvm::Triple", ptr, %"class.std::optional.67" }
%"class.std::optional.67" = type { %"struct.std::_Optional_base.68" }
%"struct.std::_Optional_base.68" = type { %"struct.std::_Optional_payload.70" }
%"struct.std::_Optional_payload.70" = type { %"struct.std::_Optional_payload.base.74", [7 x i8] }
%"struct.std::_Optional_payload.base.74" = type { %"struct.std::_Optional_payload_base.base.73" }
%"struct.std::_Optional_payload_base.base.73" = type <{ %"union.std::_Optional_payload_base<clang::driver::CudaInstallationDetector>::_Storage", i8 }>
%"union.std::_Optional_payload_base<clang::driver::CudaInstallationDetector>::_Storage" = type { %"class.clang::driver::CudaInstallationDetector" }
%"class.clang::driver::CudaInstallationDetector" = type { ptr, i8, i32, %"class.std::__cxx11::basic_string", %"class.std::__cxx11::basic_string", %"class.std::__cxx11::basic_string", %"class.std::__cxx11::basic_string", %"class.llvm::StringMap", %"class.std::bitset" }
%"class.llvm::StringMap" = type { %"class.llvm::StringMapImpl" }
%"class.llvm::StringMapImpl" = type { ptr, i32, i32, i32, i32 }
%"class.std::bitset" = type { %"struct.std::_Base_bitset" }
%"struct.std::_Base_bitset" = type { [2 x i64] }
%"class.clang::LazyDetector.77" = type { ptr, %"class.llvm::Triple", ptr, %"class.std::optional.78" }
%"class.std::optional.78" = type { %"struct.std::_Optional_base.79" }
%"struct.std::_Optional_base.79" = type { %"struct.std::_Optional_payload.81" }
%"struct.std::_Optional_payload.81" = type { %"struct.std::_Optional_payload.base.101", [7 x i8] }
%"struct.std::_Optional_payload.base.101" = type { %"struct.std::_Optional_payload_base.base.100" }
%"struct.std::_Optional_payload_base.base.100" = type { %"union.std::_Optional_payload_base<clang::driver::RocmInstallationDetector>::_Storage", i8 }
%"union.std::_Optional_payload_base<clang::driver::RocmInstallationDetector>::_Storage" = type { %"class.clang::driver::RocmInstallationDetector" }
%"class.clang::driver::RocmInstallationDetector" = type <{ ptr, i8, i8, i8, i8, i8, [3 x i8], i32, i32, ptr, %"class.std::__cxx11::basic_string", %"class.llvm::VersionTuple", %"class.std::__cxx11::basic_string", %"class.llvm::StringRef", %"class.std::vector.39", %"class.llvm::StringRef", %"class.llvm::StringRef", %"class.llvm::StringRef", %"class.llvm::StringRef", %"class.llvm::StringRef", i8, [7 x i8], %"class.llvm::SmallString", %"class.llvm::SmallString", %"class.llvm::SmallString", %"class.llvm::SmallString", %"class.llvm::SmallString", %"class.llvm::SmallString", %"class.llvm::StringMap", %"class.llvm::SmallString", %"class.llvm::SmallString", %"class.llvm::SmallString", %"class.llvm::SmallString", %"class.llvm::SmallString", %"struct.clang::driver::RocmInstallationDetector::ConditionalLibrary", %"struct.clang::driver::RocmInstallationDetector::ConditionalLibrary", %"struct.clang::driver::RocmInstallationDetector::ConditionalLibrary", %"struct.clang::driver::RocmInstallationDetector::ConditionalLibrary", %"struct.clang::driver::RocmInstallationDetector::ConditionalLibrary", %"class.std::map", %"class.llvm::SmallVector.95", i8, i8, [6 x i8] }>
%"class.llvm::VersionTuple" = type { i64, i64 }
%"class.llvm::StringRef" = type { ptr, i64 }
%"class.llvm::SmallString" = type { %"class.llvm::SmallVector.84" }
%"class.llvm::SmallVector.84" = type { %"class.llvm::SmallVectorImpl.85" }
%"class.llvm::SmallVectorImpl.85" = type { %"class.llvm::SmallVectorTemplateBase.86" }
%"class.llvm::SmallVectorTemplateBase.86" = type { %"class.llvm::SmallVectorTemplateCommon.87" }
%"class.llvm::SmallVectorTemplateCommon.87" = type { %"class.llvm::SmallVectorBase.88" }
%"class.llvm::SmallVectorBase.88" = type { ptr, i64, i64 }
%"struct.clang::driver::RocmInstallationDetector::ConditionalLibrary" = type { %"class.llvm::SmallString", %"class.llvm::SmallString" }
%"class.std::map" = type { %"class.std::_Rb_tree.90" }
%"class.std::_Rb_tree.90" = type { %"struct.std::_Rb_tree<unsigned int, std::pair<const unsigned int, std::__cxx11::basic_string<char>>, std::_Select1st<std::pair<const unsigned int, std::__cxx11::basic_string<char>>>, std::less<unsigned int>>::_Rb_tree_impl" }
%"struct.std::_Rb_tree<unsigned int, std::pair<const unsigned int, std::__cxx11::basic_string<char>>, std::_Select1st<std::pair<const unsigned int, std::__cxx11::basic_string<char>>>, std::less<unsigned int>>::_Rb_tree_impl" = type { [8 x i8], %"struct.std::_Rb_tree_header" }
%"class.llvm::SmallVector.95" = type { %"class.llvm::SmallVectorImpl.96", %"struct.llvm::SmallVectorStorage.99" }
%"class.llvm::SmallVectorImpl.96" = type { %"class.llvm::SmallVectorTemplateBase.97" }
%"class.llvm::SmallVectorTemplateBase.97" = type { %"class.llvm::SmallVectorTemplateCommon.98" }
%"class.llvm::SmallVectorTemplateCommon.98" = type { %"class.llvm::SmallVectorBase" }
%"struct.llvm::SmallVectorStorage.99" = type { [256 x i8] }
%"class.std::unique_ptr.104" = type { %"struct.std::__uniq_ptr_data.105" }
%"struct.std::__uniq_ptr_data.105" = type { %"class.std::__uniq_ptr_impl.106" }
%"class.std::__uniq_ptr_impl.106" = type { %"class.std::tuple.107" }
%"class.std::tuple.107" = type { %"struct.std::_Tuple_impl.108" }
%"struct.std::_Tuple_impl.108" = type { %"struct.std::_Head_base.111" }
%"struct.std::_Head_base.111" = type { ptr }
%"class.std::unique_ptr.112" = type { %"struct.std::__uniq_ptr_data.113" }
%"struct.std::__uniq_ptr_data.113" = type { %"class.std::__uniq_ptr_impl.114" }
%"class.std::__uniq_ptr_impl.114" = type { %"class.std::tuple.115" }
%"class.std::tuple.115" = type { %"struct.std::_Tuple_impl.116" }
%"struct.std::_Tuple_impl.116" = type { %"struct.std::_Head_base.119" }
%"struct.std::_Head_base.119" = type { ptr }
%"class.std::map.120" = type { %"class.std::_Rb_tree.121" }
%"class.std::_Rb_tree.121" = type { %"struct.std::_Rb_tree<clang::driver::options::ID, std::pair<const clang::driver::options::ID, const llvm::StringRef>, std::_Select1st<std::pair<const clang::driver::options::ID, const llvm::StringRef>>, std::less<clang::driver::options::ID>>::_Rb_tree_impl" }
%"struct.std::_Rb_tree<clang::driver::options::ID, std::pair<const clang::driver::options::ID, const llvm::StringRef>, std::_Select1st<std::pair<const clang::driver::options::ID, const llvm::StringRef>>, std::less<clang::driver::options::ID>>::_Rb_tree_impl" = type { [8 x i8], %"struct.std::_Rb_tree_header" }

; Function Attrs: mustprogress nounwind uwtable
define hidden noundef i32 @_ZNK5clang6driver10toolchains21AMDGPUOpenMPToolChain16GetCXXStdlibTypeERKN4llvm3opt7ArgListE(ptr noundef nonnull align 8 dereferenceable(4544) %0, ptr noundef nonnull align 8 dereferenceable(176) %1) unnamed_addr #0 align 2 {
  %3 = alloca ptr, align 8
  %4 = alloca ptr, align 8
  store ptr %0, ptr %3, align 8
  store ptr %1, ptr %4, align 8
  %5 = load ptr, ptr %3, align 8
  %6 = getelementptr inbounds nuw %"class.clang::driver::toolchains::AMDGPUOpenMPToolChain", ptr %5, i32 0, i32 1
  %7 = load ptr, ptr %6, align 8
  %8 = load ptr, ptr %4, align 8
  %9 = load ptr, ptr %7, align 8
  %10 = getelementptr inbounds ptr, ptr %9, i64 73
  %11 = load ptr, ptr %10, align 8
  %12 = call noundef i32 %11(ptr noundef nonnull align 8 dereferenceable(2168) %7, ptr noundef nonnull align 8 dereferenceable(176) %8)
  ret i32 %12
}