; Function Attrs: mustprogress nounwind uwtable
define hidden noundef i32 @_ZNK5clang6driver10toolchains21AMDGPUOpenMPToolChain16GetCXXStdlibTypeERKN4llvm3opt7ArgListE(ptr nocapture noundef nonnull readonly align 8 dereferenceable(4544) %0, ptr noundef nonnull align 8 dereferenceable(176) %1) unnamed_addr #0 align 2 {
  %3 = getelementptr inbounds nuw i8, ptr %0, i64 4536
  %4 = load ptr, ptr %3, align 8
  %5 = load ptr, ptr %4, align 8
  %6 = getelementptr inbounds i8, ptr %5, i64 584
  %7 = load ptr, ptr %6, align 8
  %8 = tail call noundef i32 %7(ptr noundef nonnull align 8 dereferenceable(2168) %4, ptr noundef nonnull align 8 dereferenceable(176) %1) #15
  ret i32 %8
}